target datalayout = "e-m:e-p270:32:32-p271:32:32-p272:64:64-i64:64-i128:128-f80:128-n8:16:32:64-S128"
target triple = "x86_64-pc-linux-gnu"

%struct._Node = type { %union.anon.35 }
%union.anon.35 = type { %struct.BagNode }
%struct.BagNode = type { i32, i32, ptr, ptr, i32, %union.anon.37, i32, i32, i32, i32, i32 }
%union.anon.37 = type { %struct.anon.40 }
%struct.anon.40 = type { ptr, ptr }
%struct.anon.36 = type { i32, i32, ptr, ptr }
%struct.ConsAltNode = type { i32, i32, ptr, ptr, ptr }
%struct.QuantNode = type { i32, i32, ptr, ptr, i32, i32, i32, i32, ptr, ptr, i32, i32 }
%struct.AnchorNode = type { i32, i32, ptr, ptr, i32, i32, i32, i32, ptr }

; Function Attrs: nounwind uwtable
define internal i32 @tune_call2(ptr noundef %0) #0 {
  %2 = alloca i32, align 4
  %3 = alloca ptr, align 8
  %4 = alloca i32, align 4
  %5 = alloca ptr, align 8
  %6 = alloca i32, align 4
  store ptr %0, ptr %3, align 8, !tbaa !47
  call void @llvm.lifetime.start.p0(i64 4, ptr %4) #9
  store i32 0, ptr %4, align 4, !tbaa !4
  %7 = load ptr, ptr %3, align 8, !tbaa !47
  %8 = getelementptr inbounds nuw %struct._Node, ptr %7, i32 0, i32 0
  %9 = getelementptr inbounds nuw %struct.anon.36, ptr %8, i32 0, i32 0
  %10 = load i32, ptr %9, align 8, !tbaa !32
  switch i32 %10, label %125 [
    i32 7, label %11
    i32 8, label %11
    i32 4, label %30
    i32 6, label %43
    i32 5, label %56
    i32 9, label %115
  ]

11:                                               ; preds = %1, %1
  br label %12

12:                                               ; preds = %27, %11
  %13 = load ptr, ptr %3, align 8, !tbaa !47
  %14 = getelementptr inbounds nuw %struct._Node, ptr %13, i32 0, i32 0
  %15 = getelementptr inbounds nuw %struct.ConsAltNode, ptr %14, i32 0, i32 3
  %16 = load ptr, ptr %15, align 8, !tbaa !32
  %17 = call i32 @tune_call2(ptr noundef %16)
  store i32 %17, ptr %4, align 4, !tbaa !4
  br label %18

18:                                               ; preds = %12
  %19 = load i32, ptr %4, align 4, !tbaa !4
  %20 = icmp eq i32 %19, 0
  br i1 %20, label %21, label %27

21:                                               ; preds = %18
  %22 = load ptr, ptr %3, align 8, !tbaa !47
  %23 = getelementptr inbounds nuw %struct._Node, ptr %22, i32 0, i32 0
  %24 = getelementptr inbounds nuw %struct.ConsAltNode, ptr %23, i32 0, i32 4
  %25 = load ptr, ptr %24, align 8, !tbaa !32
  store ptr %25, ptr %3, align 8, !tbaa !47
  %26 = icmp ne ptr %25, null
  br label %27

27:                                               ; preds = %21, %18
  %28 = phi i1 [ false, %18 ], [ %26, %21 ]
  br i1 %28, label %12, label %29, !llvm.loop !182

29:                                               ; preds = %27
  br label %126

30:                                               ; preds = %1
  %31 = load ptr, ptr %3, align 8, !tbaa !47
  %32 = getelementptr inbounds nuw %struct._Node, ptr %31, i32 0, i32 0
  %33 = getelementptr inbounds nuw %struct.QuantNode, ptr %32, i32 0, i32 5
  %34 = load i32, ptr %33, align 4, !tbaa !32
  %35 = icmp ne i32 %34, 0
  br i1 %35, label %36, label %42

36:                                               ; preds = %30
  %37 = load ptr, ptr %3, align 8, !tbaa !47
  %38 = getelementptr inbounds nuw %struct._Node, ptr %37, i32 0, i32 0
  %39 = getelementptr inbounds nuw %struct.anon.36, ptr %38, i32 0, i32 3
  %40 = load ptr, ptr %39, align 8, !tbaa !32
  %41 = call i32 @tune_call2(ptr noundef %40)
  store i32 %41, ptr %4, align 4, !tbaa !4
  br label %42

42:                                               ; preds = %36, %30
  br label %126

43:                                               ; preds = %1
  %44 = load ptr, ptr %3, align 8, !tbaa !47
  %45 = getelementptr inbounds nuw %struct._Node, ptr %44, i32 0, i32 0
  %46 = getelementptr inbounds nuw %struct.AnchorNode, ptr %45, i32 0, i32 4
  %47 = load i32, ptr %46, align 8, !tbaa !32
  %48 = icmp slt i32 %47, 16
  br i1 %48, label %49, label %55

49:                                               ; preds = %43
  %50 = load ptr, ptr %3, align 8, !tbaa !47
  %51 = getelementptr inbounds nuw %struct._Node, ptr %50, i32 0, i32 0
  %52 = getelementptr inbounds nuw %struct.anon.36, ptr %51, i32 0, i32 3
  %53 = load ptr, ptr %52, align 8, !tbaa !32
  %54 = call i32 @tune_call2(ptr noundef %53)
  store i32 %54, ptr %4, align 4, !tbaa !4
  br label %55

55:                                               ; preds = %49, %43
  br label %126

56:                                               ; preds = %1
  %57 = load ptr, ptr %3, align 8, !tbaa !47
  %58 = getelementptr inbounds nuw %struct._Node, ptr %57, i32 0, i32 0
  %59 = getelementptr inbounds nuw %struct.anon.36, ptr %58, i32 0, i32 1
  %60 = load i32, ptr %59, align 4, !tbaa !32
  %61 = and i32 %60, 2048
  %62 = icmp ne i32 %61, 0
  br i1 %62, label %69, label %63

63:                                               ; preds = %56
  %64 = load ptr, ptr %3, align 8, !tbaa !47
  %65 = getelementptr inbounds nuw %struct._Node, ptr %64, i32 0, i32 0
  %66 = getelementptr inbounds nuw %struct.anon.36, ptr %65, i32 0, i32 3
  %67 = load ptr, ptr %66, align 8, !tbaa !32
  %68 = call i32 @tune_call2(ptr noundef %67)
  store i32 %68, ptr %4, align 4, !tbaa !4
  br label %69

69:                                               ; preds = %63, %56
  call void @llvm.lifetime.start.p0(i64 8, ptr %5) #9
  %70 = load ptr, ptr %3, align 8, !tbaa !47
  %71 = getelementptr inbounds nuw %struct._Node, ptr %70, i32 0, i32 0
  store ptr %71, ptr %5, align 8, !tbaa !15
  %72 = load i32, ptr %4, align 4, !tbaa !4
  %73 = icmp ne i32 %72, 0
  br i1 %73, label %74, label %76

74:                                               ; preds = %69
  %75 = load i32, ptr %4, align 4, !tbaa !4
  store i32 %75, ptr %2, align 4
  store i32 1, ptr %6, align 4
  br label %112

76:                                               ; preds = %69
  %77 = load ptr, ptr %5, align 8, !tbaa !15
  %78 = getelementptr inbounds nuw %struct.BagNode, ptr %77, i32 0, i32 4
  %79 = load i32, ptr %78, align 8, !tbaa !156
  %80 = icmp eq i32 %79, 3
  br i1 %80, label %81, label %111

81:                                               ; preds = %76
  %82 = load ptr, ptr %5, align 8, !tbaa !15
  %83 = getelementptr inbounds nuw %struct.BagNode, ptr %82, i32 0, i32 5
  %84 = getelementptr inbounds nuw %struct.anon.40, ptr %83, i32 0, i32 0
  %85 = load ptr, ptr %84, align 8, !tbaa !32
  %86 = icmp ne ptr %85, null
  br i1 %86, label %87, label %98

87:                                               ; preds = %81
  %88 = load ptr, ptr %5, align 8, !tbaa !15
  %89 = getelementptr inbounds nuw %struct.BagNode, ptr %88, i32 0, i32 5
  %90 = getelementptr inbounds nuw %struct.anon.40, ptr %89, i32 0, i32 0
  %91 = load ptr, ptr %90, align 8, !tbaa !32
  %92 = call i32 @tune_call2(ptr noundef %91)
  store i32 %92, ptr %4, align 4, !tbaa !4
  %93 = load i32, ptr %4, align 4, !tbaa !4
  %94 = icmp ne i32 %93, 0
  br i1 %94, label %95, label %97

95:                                               ; preds = %87
  %96 = load i32, ptr %4, align 4, !tbaa !4
  store i32 %96, ptr %2, align 4
  store i32 1, ptr %6, align 4
  br label %112

97:                                               ; preds = %87
  br label %98

98:                                               ; preds = %97, %81
  %99 = load ptr, ptr %5, align 8, !tbaa !15
  %100 = getelementptr inbounds nuw %struct.BagNode, ptr %99, i32 0, i32 5
  %101 = getelementptr inbounds nuw %struct.anon.40, ptr %100, i32 0, i32 1
  %102 = load ptr, ptr %101, align 8, !tbaa !32
  %103 = icmp ne ptr %102, null
  br i1 %103, label %104, label %110

104:                                              ; preds = %98
  %105 = load ptr, ptr %5, align 8, !tbaa !15
  %106 = getelementptr inbounds nuw %struct.BagNode, ptr %105, i32 0, i32 5
  %107 = getelementptr inbounds nuw %struct.anon.40, ptr %106, i32 0, i32 1
  %108 = load ptr, ptr %107, align 8, !tbaa !32
  %109 = call i32 @tune_call2(ptr noundef %108)
  store i32 %109, ptr %4, align 4, !tbaa !4
  br label %110

110:                                              ; preds = %104, %98
  br label %111

111:                                              ; preds = %110, %76
  store i32 0, ptr %6, align 4
  br label %112

112:                                              ; preds = %111, %95, %74
  call void @llvm.lifetime.end.p0(i64 8, ptr %5) #9
  %113 = load i32, ptr %6, align 4
  switch i32 %113, label %128 [
    i32 0, label %114
  ]

114:                                              ; preds = %112
  br label %126

115:                                              ; preds = %1
  %116 = load ptr, ptr %3, align 8, !tbaa !47
  %117 = getelementptr inbounds nuw %struct._Node, ptr %116, i32 0, i32 0
  %118 = getelementptr inbounds nuw %struct.anon.36, ptr %117, i32 0, i32 1
  %119 = load i32, ptr %118, align 4, !tbaa !32
  %120 = and i32 %119, 2048
  %121 = icmp ne i32 %120, 0
  br i1 %121, label %124, label %122

122:                                              ; preds = %115
  %123 = load ptr, ptr %3, align 8, !tbaa !47
  call void @tune_call2_call(ptr noundef %123)
  br label %124

124:                                              ; preds = %122, %115
  br label %126

125:                                              ; preds = %1
  br label %126

126:                                              ; preds = %125, %124, %114, %55, %42, %29
  %127 = load i32, ptr %4, align 4, !tbaa !4
  store i32 %127, ptr %2, align 4
  store i32 1, ptr %6, align 4
  br label %128

128:                                              ; preds = %126, %112
  call void @llvm.lifetime.end.p0(i64 4, ptr %4) #9
  %129 = load i32, ptr %2, align 4
  ret i32 %129
}